; Function Attrs: nounwind uwtable
define internal noundef i32 @sap_read_close(ptr noundef readonly captures(none) %0) #0 {
  %2 = getelementptr inbounds nuw i8, ptr %0, i64 24
  %3 = load ptr, ptr %2, align 8, !tbaa !11
  %4 = getelementptr inbounds nuw i8, ptr %3, i64 8
  %5 = load ptr, ptr %4, align 8, !tbaa !40
  %.not = icmp eq ptr %5, null
  br i1 %.not, label %7, label %6

6:                                                ; preds = %1
  tail call void @avformat_close_input(ptr noundef nonnull %4) #6
  br label %7

7:                                                ; preds = %6, %1
  %8 = tail call i32 @ffurl_closep(ptr noundef nonnull %3) #6
  %9 = getelementptr inbounds nuw i8, ptr %3, i64 304
  tail call void @av_freep(ptr noundef nonnull %9) #6
  tail call void @ff_network_close() #6
  ret i32 0
}